; ModuleID = '41/514.c'
source_filename = "41/514.c"
target datalayout = "e-m:e-p270:32:32-p271:32:32-p272:64:64-i64:64-f80:128-n8:16:32:64-S128"
target triple = "x86_64-pc-linux-gnu"

@.str = private unnamed_addr constant [16 x i8] c"%d %d %d %d %d\0A\00", align 1

; Function Attrs: noinline nounwind uwtable
define dso_local i32 @main() #0 {
  %1 = alloca i32, align 4
  %2 = alloca i32, align 4
  %3 = alloca i32, align 4
  %4 = alloca i32, align 4
  %5 = alloca i32, align 4
  store i32 1, i32* %1, align 4
  store i32 1, i32* %4, align 4
  store i32 2, i32* %2, align 4
  store i32 1, i32* %3, align 4
  store i32 5, i32* %1, align 4
  store i32 4, i32* %5, align 4
  store i32 3, i32* %4, align 4
  %6 = load i32, i32* %1, align 4
  %7 = load i32, i32* %2, align 4
  %8 = load i32, i32* %3, align 4
  %9 = load i32, i32* %4, align 4
  %10 = load i32, i32* %5, align 4
  %11 = call i32 (i8*, ...) @printf(i8* getelementptr inbounds ([16 x i8], [16 x i8]* @.str, i64 0, i64 0), i32 %6, i32 %7, i32 %8, i32 %9, i32 %10)
  ret i32 0
}

declare dso_local i32 @printf(i8*, ...) #1


!llvm.module.flags = !{!0}
!llvm.ident = !{!1}

!0 = !{i32 1, !"wchar_size", i32 4}
!1 = !{!"clang version 10.0.0-4ubuntu1 "}
